target datalayout = "e-m:e-p270:32:32-p271:32:32-p272:64:64-i64:64-i128:128-f80:128-n8:16:32:64-S128"
target triple = "x86_64-pc-linux-gnu"

%struct.curl_trc_feat = type { ptr, i32 }
%struct.Curl_llist_node = type { ptr, ptr, ptr, ptr }
%struct.Curl_ssl_scache_peer = type { ptr, ptr, ptr, ptr, %struct.Curl_llist, ptr, ptr, [32 x i8], [32 x i8], i64, i64, i8 }
%struct.Curl_llist = type { ptr, ptr, ptr, i64 }
%struct.Curl_easy = type { i32, i64, i64, ptr, %struct.Curl_llist_node, %struct.Curl_llist_node, i32, i32, %struct.Curl_message, %struct.easy_pollset, %struct.Names, ptr, ptr, ptr, ptr, %struct.SingleRequest, %struct.UserDefined, ptr, ptr, ptr, %struct.Progress, %struct.UrlState, ptr, %struct.PureInfo, %struct.curl_tlssessioninfo }
%struct.Curl_message = type { %struct.Curl_llist_node, %struct.CURLMsg }
%struct.CURLMsg = type { i32, ptr, %union.anon }
%union.anon = type { ptr }
%struct.easy_pollset = type { [5 x i32], i32, [5 x i8] }
%struct.Names = type { ptr, i32 }
%struct.SingleRequest = type <{ i64, i64, i64, i64, %struct.curltime, i32, i32, i32, i32, i64, i32, i32, i8, i8, [2 x i8], i32, ptr, ptr, %struct.bufq, i64, i64, ptr, ptr, %union.anon.0, ptr, i8, i32, [3 x i8] }>
%struct.curltime = type { i64, i32 }
%struct.bufq = type { ptr, ptr, ptr, ptr, i64, i64, i64, i32 }
%union.anon.0 = type { ptr }
%struct.UserDefined = type <{ ptr, ptr, ptr, ptr, ptr, ptr, i64, i64, i64, ptr, ptr, i64, ptr, ptr, ptr, ptr, ptr, ptr, ptr, ptr, ptr, ptr, ptr, ptr, ptr, ptr, ptr, ptr, ptr, ptr, ptr, ptr, ptr, ptr, ptr, i64, i64, i64, i64, i64, i64, i64, i64, i64, ptr, ptr, %struct.curl_mimepart, ptr, ptr, ptr, i64, %struct.ssl_config_data, %struct.ssl_config_data, ptr, i16, i8, i8, %struct.ssl_general_config, i32, i32, i32, [4 x i8], ptr, ptr, i64, i32, i8, i8, i8, i8, ptr, ptr, ptr, i32, [4 x i8], [74 x ptr], [8 x ptr], i32, i32, i32, [4 x i8], ptr, i32, [4 x i8], ptr, ptr, ptr, ptr, ptr, i32, i32, i32, i32, i32, i32, i32, i32, i64, ptr, ptr, i64, ptr, i64, ptr, ptr, ptr, ptr, i32, i16, i16, i16, i8, i8, i8, i8, i8, i8, i8, i8, i64, [6 x i8] }>
%struct.curl_mimepart = type { ptr, ptr, i32, i32, ptr, ptr, ptr, ptr, ptr, ptr, ptr, ptr, ptr, ptr, ptr, i64, %struct.mime_state, ptr, %struct.mime_encoder_state, i64 }
%struct.mime_state = type { i32, ptr, i64 }
%struct.mime_encoder_state = type { i64, i64, i64, [256 x i8] }
%struct.ssl_config_data = type { %struct.ssl_primary_config, i64, ptr, ptr, ptr, ptr, ptr, ptr, ptr, i16 }
%struct.ssl_primary_config = type { ptr, ptr, ptr, ptr, ptr, ptr, ptr, ptr, ptr, ptr, ptr, ptr, ptr, ptr, i8, i32, i8, i8 }
%struct.ssl_general_config = type { i32 }
%struct.Progress = type { i64, %struct.pgrs_dir, %struct.pgrs_dir, i64, i64, i32, i32, i64, i64, i64, i64, i64, i64, i64, i64, i64, %struct.curltime, %struct.curltime, %struct.curltime, %struct.curltime, %struct.curltime, [6 x i64], [6 x %struct.curltime], i32, i8 }
%struct.pgrs_dir = type { i64, i64, i64, %struct.pgrs_measure }
%struct.pgrs_measure = type { %struct.curltime, i64 }
%struct.UrlState = type { %struct.curltime, i64, i64, %struct.dynbuf, ptr, i64, ptr, i32, i32, i32, ptr, i32, i64, i32, ptr, %struct.digestdata, %struct.digestdata, %struct.auth, %struct.auth, %struct.Curl_async, ptr, i8, %struct.curltime, %struct.Curl_tree, %struct.Curl_llist, [15 x %struct.time_node], ptr, ptr, i64, i64, i64, i64, [32 x i8], i64, ptr, ptr, ptr, %struct.urlpieces, ptr, ptr, ptr, ptr, ptr, i64, %struct.dynbuf, %struct.Curl_llist, [2 x %struct.curl_header], ptr, i32, ptr, ptr, %struct.store_netrc, %struct.dynamically_allocated_data, i8, i8, i8, i8, i32 }
%struct.digestdata = type { ptr, ptr, ptr, ptr, ptr, ptr, i32, i8, i8 }
%struct.auth = type { i64, i64, i64, i8 }
%struct.Curl_async = type { ptr, ptr, ptr, ptr, i32, i32, i8 }
%struct.Curl_tree = type { ptr, ptr, ptr, ptr, %struct.curltime, ptr }
%struct.time_node = type { %struct.Curl_llist_node, %struct.curltime, i32 }
%struct.urlpieces = type { ptr, ptr, ptr, ptr, ptr, ptr, ptr, ptr }
%struct.dynbuf = type { ptr, i64, i64, i64 }
%struct.curl_header = type { ptr, ptr, i64, i64, i32, ptr }
%struct.store_netrc = type { %struct.dynbuf, ptr, i8 }
%struct.dynamically_allocated_data = type { ptr, ptr, ptr, ptr, ptr, ptr, ptr, ptr, ptr, ptr, ptr, ptr, ptr, ptr }
%struct.PureInfo = type { i32, i32, i32, i64, i64, i64, i64, i64, i64, i64, ptr, ptr, i64, i32, %struct.ip_quadruple, i32, ptr, i32, %struct.curl_certinfo, i32, i8 }
%struct.ip_quadruple = type { [46 x i8], [46 x i8], i32, i32 }
%struct.curl_certinfo = type { i32, ptr }
%struct.curl_tlssessioninfo = type { i32, ptr }

@Curl_trc_feat_ssls = external global %struct.curl_trc_feat, align 8
@.str.30 = private unnamed_addr constant [30 x i8] c"unable to add scache peer: %d\00", align 1

; Function Attrs: nounwind uwtable
define internal void @cf_ssl_scache_peer_set_obj(ptr noundef %0, ptr noundef %1, ptr noundef %2) #0 {
  %4 = alloca ptr, align 8
  %5 = alloca ptr, align 8
  %6 = alloca ptr, align 8
  store ptr %0, ptr %4, align 8, !tbaa !33
  store ptr %1, ptr %5, align 8, !tbaa !14
  store ptr %2, ptr %6, align 8, !tbaa !14
  br label %7

7:                                                ; preds = %3
  br label %8

8:                                                ; preds = %7
  %9 = load ptr, ptr %4, align 8, !tbaa !33
  %10 = getelementptr inbounds nuw %struct.Curl_ssl_scache_peer, ptr %9, i32 0, i32 6
  %11 = load ptr, ptr %10, align 8, !tbaa !47
  %12 = icmp ne ptr %11, null
  br i1 %12, label %13, label %20

13:                                               ; preds = %8
  %14 = load ptr, ptr %4, align 8, !tbaa !33
  %15 = getelementptr inbounds nuw %struct.Curl_ssl_scache_peer, ptr %14, i32 0, i32 6
  %16 = load ptr, ptr %15, align 8, !tbaa !47
  %17 = load ptr, ptr %4, align 8, !tbaa !33
  %18 = getelementptr inbounds nuw %struct.Curl_ssl_scache_peer, ptr %17, i32 0, i32 5
  %19 = load ptr, ptr %18, align 8, !tbaa !46
  call void %16(ptr noundef %19)
  br label %20

20:                                               ; preds = %13, %8
  %21 = load ptr, ptr %5, align 8, !tbaa !14
  %22 = load ptr, ptr %4, align 8, !tbaa !33
  %23 = getelementptr inbounds nuw %struct.Curl_ssl_scache_peer, ptr %22, i32 0, i32 5
  store ptr %21, ptr %23, align 8, !tbaa !46
  %24 = load ptr, ptr %6, align 8, !tbaa !14
  %25 = load ptr, ptr %4, align 8, !tbaa !33
  %26 = getelementptr inbounds nuw %struct.Curl_ssl_scache_peer, ptr %25, i32 0, i32 6
  store ptr %24, ptr %26, align 8, !tbaa !47
  ret void
}

; Function Attrs: nounwind uwtable
define hidden i32 @Curl_ssl_scache_add_obj(ptr noundef %0, ptr noundef %1, ptr noundef %2, ptr noundef %3, ptr noundef %4) #0 {
  %6 = alloca ptr, align 8
  %7 = alloca ptr, align 8
  %8 = alloca ptr, align 8
  %9 = alloca ptr, align 8
  %10 = alloca ptr, align 8
  %11 = alloca ptr, align 8
  %12 = alloca ptr, align 8
  %13 = alloca ptr, align 8
  %14 = alloca i32, align 4
  store ptr %0, ptr %6, align 8, !tbaa !123
  store ptr %1, ptr %7, align 8, !tbaa !53
  store ptr %2, ptr %8, align 8, !tbaa !3
  store ptr %3, ptr %9, align 8, !tbaa !14
  store ptr %4, ptr %10, align 8, !tbaa !14
  call void @llvm.lifetime.start.p0(i64 8, ptr %11) #6
  %15 = load ptr, ptr %7, align 8, !tbaa !53
  %16 = getelementptr inbounds nuw %struct.Curl_easy, ptr %15, i32 0, i32 21
  %17 = getelementptr inbounds nuw %struct.UrlState, ptr %16, i32 0, i32 10
  %18 = load ptr, ptr %17, align 8, !tbaa !173
  store ptr %18, ptr %11, align 8, !tbaa !31
  call void @llvm.lifetime.start.p0(i64 8, ptr %12) #6
  %19 = load ptr, ptr %6, align 8, !tbaa !123
  %20 = call ptr @Curl_ssl_cf_get_primary_config(ptr noundef %19)
  store ptr %20, ptr %12, align 8, !tbaa !129
  call void @llvm.lifetime.start.p0(i64 8, ptr %13) #6
  store ptr null, ptr %13, align 8, !tbaa !33
  call void @llvm.lifetime.start.p0(i64 4, ptr %14) #6
  br label %21

21:                                               ; preds = %5
  br label %22

22:                                               ; preds = %21
  br label %23

23:                                               ; preds = %22
  br label %24

24:                                               ; preds = %23
  br label %25

25:                                               ; preds = %24
  br label %26

26:                                               ; preds = %25
  %27 = load ptr, ptr %7, align 8, !tbaa !53
  %28 = load ptr, ptr %11, align 8, !tbaa !31
  %29 = load ptr, ptr %8, align 8, !tbaa !3
  %30 = load ptr, ptr %12, align 8, !tbaa !129
  %31 = call i32 @cf_ssl_add_peer(ptr noundef %27, ptr noundef %28, ptr noundef %29, ptr noundef %30, ptr noundef %13)
  store i32 %31, ptr %14, align 4, !tbaa !10
  %32 = load i32, ptr %14, align 4, !tbaa !10
  %33 = icmp ne i32 %32, 0
  br i1 %33, label %37, label %34

34:                                               ; preds = %26
  %35 = load ptr, ptr %13, align 8, !tbaa !33
  %36 = icmp ne ptr %35, null
  br i1 %36, label %73, label %37

37:                                               ; preds = %34, %26
  br label %38

38:                                               ; preds = %37
  %39 = load ptr, ptr %7, align 8, !tbaa !53
  %40 = icmp ne ptr %39, null
  br i1 %40, label %41, label %70

41:                                               ; preds = %38
  %42 = load ptr, ptr %7, align 8, !tbaa !53
  %43 = getelementptr inbounds nuw %struct.Curl_easy, ptr %42, i32 0, i32 16
  %44 = getelementptr inbounds nuw %struct.UserDefined, ptr %43, i32 0, i32 119
  %45 = load i64, ptr %44, align 2
  %46 = lshr i64 %45, 31
  %47 = and i64 %46, 1
  %48 = trunc i64 %47 to i32
  %49 = icmp ne i32 %48, 0
  br i1 %49, label %50, label %70

50:                                               ; preds = %41
  %51 = load ptr, ptr %7, align 8, !tbaa !53
  %52 = getelementptr inbounds nuw %struct.Curl_easy, ptr %51, i32 0, i32 21
  %53 = getelementptr inbounds nuw %struct.UrlState, ptr %52, i32 0, i32 50
  %54 = load ptr, ptr %53, align 8, !tbaa !176
  %55 = icmp ne ptr %54, null
  br i1 %55, label %56, label %64

56:                                               ; preds = %50
  %57 = load ptr, ptr %7, align 8, !tbaa !53
  %58 = getelementptr inbounds nuw %struct.Curl_easy, ptr %57, i32 0, i32 21
  %59 = getelementptr inbounds nuw %struct.UrlState, ptr %58, i32 0, i32 50
  %60 = load ptr, ptr %59, align 8, !tbaa !176
  %61 = getelementptr inbounds nuw %struct.curl_trc_feat, ptr %60, i32 0, i32 1
  %62 = load i32, ptr %61, align 8, !tbaa !177
  %63 = icmp sge i32 %62, 1
  br i1 %63, label %64, label %70

64:                                               ; preds = %56, %50
  %65 = load i32, ptr getelementptr inbounds nuw (%struct.curl_trc_feat, ptr @Curl_trc_feat_ssls, i32 0, i32 1), align 8, !tbaa !177
  %66 = icmp sge i32 %65, 1
  br i1 %66, label %67, label %70

67:                                               ; preds = %64
  %68 = load ptr, ptr %7, align 8, !tbaa !53
  %69 = load i32, ptr %14, align 4, !tbaa !10
  call void (ptr, ptr, ...) @Curl_trc_ssls(ptr noundef %68, ptr noundef @.str.30, i32 noundef %69)
  br label %70

70:                                               ; preds = %67, %64, %56, %41, %38
  br label %71

71:                                               ; preds = %70
  br label %72

72:                                               ; preds = %71
  br label %77

73:                                               ; preds = %34
  %74 = load ptr, ptr %13, align 8, !tbaa !33
  %75 = load ptr, ptr %9, align 8, !tbaa !14
  %76 = load ptr, ptr %10, align 8, !tbaa !14
  call void @cf_ssl_scache_peer_set_obj(ptr noundef %74, ptr noundef %75, ptr noundef %76)
  store ptr null, ptr %9, align 8, !tbaa !14
  br label %77

77:                                               ; preds = %73, %72
  %78 = load ptr, ptr %9, align 8, !tbaa !14
  %79 = icmp ne ptr %78, null
  br i1 %79, label %80, label %86

80:                                               ; preds = %77
  %81 = load ptr, ptr %10, align 8, !tbaa !14
  %82 = icmp ne ptr %81, null
  br i1 %82, label %83, label %86

83:                                               ; preds = %80
  %84 = load ptr, ptr %10, align 8, !tbaa !14
  %85 = load ptr, ptr %9, align 8, !tbaa !14
  call void %84(ptr noundef %85)
  br label %86

86:                                               ; preds = %83, %80, %77
  %87 = load i32, ptr %14, align 4, !tbaa !10
  call void @llvm.lifetime.end.p0(i64 4, ptr %14) #6
  call void @llvm.lifetime.end.p0(i64 8, ptr %13) #6
  call void @llvm.lifetime.end.p0(i64 8, ptr %12) #6
  call void @llvm.lifetime.end.p0(i64 8, ptr %11) #6
  ret i32 %87
}