; Function Attrs: nounwind uwtable
define hidden i32 @Curl_ssl_scache_add_obj(ptr noundef %0, ptr noundef %1, ptr noundef %2, ptr noundef %3, ptr noundef %4) local_unnamed_addr #0 {
  %6 = alloca ptr, align 8
  %7 = getelementptr inbounds nuw i8, ptr %1, i64 3232
  %8 = load ptr, ptr %7, align 8, !tbaa !155
  %9 = tail call ptr @Curl_ssl_cf_get_primary_config(ptr noundef %0) #9
  call void @llvm.lifetime.start.p0(i64 8, ptr nonnull %6) #9
  %10 = call fastcc i32 @cf_ssl_add_peer(ptr noundef %1, ptr noundef %8, ptr noundef %2, ptr noundef %9, ptr noundef %6)
  %11 = icmp eq i32 %10, 0
  %12 = load ptr, ptr %6, align 8
  %13 = icmp ne ptr %12, null
  %or.cond = select i1 %11, i1 %13, i1 false
  br i1 %or.cond, label %29, label %14

14:                                               ; preds = %5
  %15 = getelementptr inbounds nuw i8, ptr %1, i64 2658
  %16 = load i64, ptr %15, align 2
  %17 = and i64 %16, 2147483648
  %.not29 = icmp eq i64 %17, 0
  br i1 %.not29, label %36, label %18

18:                                               ; preds = %14
  %19 = getelementptr inbounds nuw i8, ptr %1, i64 4864
  %20 = load ptr, ptr %19, align 8, !tbaa !156
  %.not30 = icmp eq ptr %20, null
  br i1 %.not30, label %27, label %21

21:                                               ; preds = %18
  %22 = getelementptr inbounds nuw i8, ptr %20, i64 8
  %23 = load i32, ptr %22, align 8, !tbaa !157
  %24 = icmp sgt i32 %23, 0
  %25 = load i32, ptr getelementptr inbounds nuw (i8, ptr @Curl_trc_feat_ssls, i64 8), align 8
  %26 = icmp sgt i32 %25, 0
  %or.cond3 = select i1 %24, i1 %26, i1 false
  br i1 %or.cond3, label %28, label %36

27:                                               ; preds = %18
  %.old = load i32, ptr getelementptr inbounds nuw (i8, ptr @Curl_trc_feat_ssls, i64 8), align 8, !tbaa !157
  %.old2 = icmp sgt i32 %.old, 0
  br i1 %.old2, label %28, label %36

28:                                               ; preds = %21, %27
  tail call void (ptr, ptr, ...) @Curl_trc_ssls(ptr noundef nonnull %1, ptr noundef nonnull @.str.30, i32 noundef %10) #9
  br label %36

29:                                               ; preds = %5
  %30 = getelementptr inbounds nuw i8, ptr %12, i64 72
  %31 = load ptr, ptr %30, align 8, !tbaa !38
  %.not.i = icmp eq ptr %31, null
  br i1 %.not.i, label %.thread, label %32

32:                                               ; preds = %29
  %33 = getelementptr inbounds nuw i8, ptr %12, i64 64
  %34 = load ptr, ptr %33, align 8, !tbaa !37
  tail call void %31(ptr noundef %34) #9
  br label %.thread

.thread:                                          ; preds = %32, %29
  %35 = getelementptr inbounds nuw i8, ptr %12, i64 64
  store ptr %3, ptr %35, align 8, !tbaa !37
  store ptr %4, ptr %30, align 8, !tbaa !38
  br label %40

36:                                               ; preds = %14, %21, %27, %28
  %37 = icmp ne ptr %3, null
  %38 = icmp ne ptr %4, null
  %or.cond6 = and i1 %37, %38
  br i1 %or.cond6, label %39, label %40

39:                                               ; preds = %36
  tail call void %4(ptr noundef nonnull %3) #9
  br label %40

40:                                               ; preds = %.thread, %39, %36
  call void @llvm.lifetime.end.p0(i64 8, ptr nonnull %6) #9
  ret i32 %10
}